; Function Attrs: mustprogress nounwind uwtable
define hidden void @_ZN4llvh10TimerGroup8printAllERNS_11raw_ostreamE(ptr noundef nonnull align 8 dereferenceable(36) %OS) local_unnamed_addr #0 align 2 {
entry:
  %0 = load atomic i64, ptr @_ZL9TimerLock acquire, align 8
  %tobool.not.i = icmp eq i64 %0, 0
  br i1 %tobool.not.i, label %if.then.i, label %_ZN4llvh13ManagedStaticINS_3sys10SmartMutexILb1EEENS_14object_creatorIS3_EENS_14object_deleterIS3_EEEdeEv.exit

if.then.i:                                        ; preds = %entry
  tail call void @_ZNK4llvh17ManagedStaticBase21RegisterManagedStaticEPFPvvEPFvS1_E(ptr noundef nonnull align 8 dereferenceable(24) @_ZL9TimerLock, ptr noundef nonnull @_ZN4llvh14object_creatorINS_3sys10SmartMutexILb1EEEE4callEv, ptr noundef nonnull @_ZN4llvh14object_deleterINS_3sys10SmartMutexILb1EEEE4callEPv) #21
  br label %_ZN4llvh13ManagedStaticINS_3sys10SmartMutexILb1EEENS_14object_creatorIS3_EENS_14object_deleterIS3_EEEdeEv.exit

_ZN4llvh13ManagedStaticINS_3sys10SmartMutexILb1EEENS_14object_creatorIS3_EENS_14object_deleterIS3_EEEdeEv.exit: ; preds = %entry, %if.then.i
  %1 = load atomic i64, ptr @_ZL9TimerLock monotonic, align 8
  %atomic-temp.i.0.i1.i = inttoptr i64 %1 to ptr
  %call.i.i = tail call noundef zeroext i1 @_ZN4llvh21llvm_is_multithreadedEv() #21
  br i1 %call.i.i, label %if.then.i.i, label %if.else.i.i

if.then.i.i:                                      ; preds = %_ZN4llvh13ManagedStaticINS_3sys10SmartMutexILb1EEENS_14object_creatorIS3_EENS_14object_deleterIS3_EEEdeEv.exit
  %call2.i.i = tail call noundef zeroext i1 @_ZN4llvh3sys9MutexImpl7acquireEv(ptr noundef nonnull align 8 dereferenceable(8) %atomic-temp.i.0.i1.i) #21
  br label %_ZN4llvh3sys15SmartScopedLockILb1EEC2ERNS0_10SmartMutexILb1EEE.exit

if.else.i.i:                                      ; preds = %_ZN4llvh13ManagedStaticINS_3sys10SmartMutexILb1EEENS_14object_creatorIS3_EENS_14object_deleterIS3_EEEdeEv.exit
  %acquired.i.i = getelementptr inbounds i8, ptr %atomic-temp.i.0.i1.i, i64 8
  %2 = load i32, ptr %acquired.i.i, align 8
  %inc.i.i = add i32 %2, 1
  store i32 %inc.i.i, ptr %acquired.i.i, align 8
  br label %_ZN4llvh3sys15SmartScopedLockILb1EEC2ERNS0_10SmartMutexILb1EEE.exit

_ZN4llvh3sys15SmartScopedLockILb1EEC2ERNS0_10SmartMutexILb1EEE.exit: ; preds = %if.then.i.i, %if.else.i.i
  %TG.08 = load ptr, ptr @_ZL14TimerGroupList, align 8
  %tobool.not9 = icmp eq ptr %TG.08, null
  br i1 %tobool.not9, label %for.end, label %for.body

for.body:                                         ; preds = %_ZN4llvh3sys15SmartScopedLockILb1EEC2ERNS0_10SmartMutexILb1EEE.exit, %for.body
  %TG.010 = phi ptr [ %TG.0, %for.body ], [ %TG.08, %_ZN4llvh3sys15SmartScopedLockILb1EEC2ERNS0_10SmartMutexILb1EEE.exit ]
  tail call void @_ZN4llvh10TimerGroup5printERNS_11raw_ostreamE(ptr noundef nonnull align 8 dereferenceable(112) %TG.010, ptr noundef nonnull align 8 dereferenceable(36) %OS)
  %Next = getelementptr inbounds i8, ptr %TG.010, i64 104
  %TG.0 = load ptr, ptr %Next, align 8
  %tobool.not = icmp eq ptr %TG.0, null
  br i1 %tobool.not, label %for.end, label %for.body, !llvm.loop !64

for.end:                                          ; preds = %for.body, %_ZN4llvh3sys15SmartScopedLockILb1EEC2ERNS0_10SmartMutexILb1EEE.exit
  %call.i.i3 = tail call noundef zeroext i1 @_ZN4llvh21llvm_is_multithreadedEv() #21
  br i1 %call.i.i3, label %if.then.i.i6, label %if.else.i.i4

if.then.i.i6:                                     ; preds = %for.end
  %call2.i.i7 = tail call noundef zeroext i1 @_ZN4llvh3sys9MutexImpl7releaseEv(ptr noundef nonnull align 8 dereferenceable(8) %atomic-temp.i.0.i1.i) #21
  br label %_ZN4llvh3sys15SmartScopedLockILb1EED2Ev.exit

if.else.i.i4:                                     ; preds = %for.end
  %acquired.i.i5 = getelementptr inbounds i8, ptr %atomic-temp.i.0.i1.i, i64 8
  %3 = load i32, ptr %acquired.i.i5, align 8
  %dec.i.i = add i32 %3, -1
  store i32 %dec.i.i, ptr %acquired.i.i5, align 8
  br label %_ZN4llvh3sys15SmartScopedLockILb1EED2Ev.exit

_ZN4llvh3sys15SmartScopedLockILb1EED2Ev.exit:     ; preds = %if.then.i.i6, %if.else.i.i4
  ret void
}